	.section	__TEXT,__text,regular,pure_instructions
	.macosx_version_min 10, 12
	.globl	_main
	.p2align	4, 0x90
_main:                                  ## @main
Lfunc_begin0:
	.cfi_startproc
	.cfi_personality 155, ___gxx_personality_v0
	.cfi_lsda 16, Lexception0
## BB#0:
	pushq	%rbp
Ltmp10:
	.cfi_def_cfa_offset 16
Ltmp11:
	.cfi_offset %rbp, -16
	movq	%rsp, %rbp
Ltmp12:
	.cfi_def_cfa_register %rbp
	subq	$96, %rsp
	movl	$0, -20(%rbp)
	leaq	-48(%rbp), %rax
	movq	%rax, %rdi
	movq	%rax, -72(%rbp)         ## 8-byte Spill
	callq	__ZN6PessoaC1Ev
	movq	-72(%rbp), %rax         ## 8-byte Reload
	movq	%rax, -8(%rbp)
	leaq	L_.str(%rip), %rdi
	movq	%rdi, -16(%rbp)
	movq	-8(%rbp), %rcx
Ltmp0:
	movq	%rdi, -80(%rbp)         ## 8-byte Spill
	movq	%rcx, %rdi
	movq	-80(%rbp), %rsi         ## 8-byte Reload
	callq	__ZNSt3__112basic_stringIcNS_11char_traitsIcEENS_9allocatorIcEEE6assignEPKc
Ltmp1:
	movq	%rax, -88(%rbp)         ## 8-byte Spill
	jmp	LBB0_1
LBB0_1:
	jmp	LBB0_2
LBB0_2:
Ltmp2:
	leaq	-48(%rbp), %rdi
	callq	__ZN6Pessoa5helloEv
Ltmp3:
	jmp	LBB0_3
LBB0_3:
Ltmp4:
	xorl	%edi, %edi
	callq	_exit
Ltmp5:
	jmp	LBB0_4
LBB0_4:
LBB0_5:
Ltmp6:
	movl	%edx, %ecx
	movq	%rax, -56(%rbp)
	movl	%ecx, -60(%rbp)
Ltmp7:
	leaq	-48(%rbp), %rdi
	callq	__ZN6PessoaD1Ev
Ltmp8:
	jmp	LBB0_6
LBB0_6:
	jmp	LBB0_7
LBB0_7:
	movq	-56(%rbp), %rdi
	callq	__Unwind_Resume
LBB0_8:
Ltmp9:
	movl	%edx, %ecx
	movq	%rax, %rdi
	movl	%ecx, -92(%rbp)         ## 4-byte Spill
	callq	___clang_call_terminate
Lfunc_end0:
	.cfi_endproc
	.section	__TEXT,__gcc_except_tab
	.p2align	2
GCC_except_table0:
Lexception0:
	.byte	255                     ## @LPStart Encoding = omit
	.byte	155                     ## @TType Encoding = indirect pcrel sdata4
	.asciz	"\274"                  ## @TType base offset
	.byte	3                       ## Call site Encoding = udata4
	.byte	52                      ## Call site table length
Lset0 = Lfunc_begin0-Lfunc_begin0       ## >> Call Site 1 <<
	.long	Lset0
Lset1 = Ltmp0-Lfunc_begin0              ##   Call between Lfunc_begin0 and Ltmp0
	.long	Lset1
	.long	0                       ##     has no landing pad
	.byte	0                       ##   On action: cleanup
Lset2 = Ltmp0-Lfunc_begin0              ## >> Call Site 2 <<
	.long	Lset2
Lset3 = Ltmp5-Ltmp0                     ##   Call between Ltmp0 and Ltmp5
	.long	Lset3
Lset4 = Ltmp6-Lfunc_begin0              ##     jumps to Ltmp6
	.long	Lset4
	.byte	0                       ##   On action: cleanup
Lset5 = Ltmp7-Lfunc_begin0              ## >> Call Site 3 <<
	.long	Lset5
Lset6 = Ltmp8-Ltmp7                     ##   Call between Ltmp7 and Ltmp8
	.long	Lset6
Lset7 = Ltmp9-Lfunc_begin0              ##     jumps to Ltmp9
	.long	Lset7
	.byte	1                       ##   On action: 1
Lset8 = Ltmp8-Lfunc_begin0              ## >> Call Site 4 <<
	.long	Lset8
Lset9 = Lfunc_end0-Ltmp8                ##   Call between Ltmp8 and Lfunc_end0
	.long	Lset9
	.long	0                       ##     has no landing pad
	.byte	0                       ##   On action: cleanup
	.byte	1                       ## >> Action Record 1 <<
                                        ##   Catch TypeInfo 1
	.byte	0                       ##   No further actions
                                        ## >> Catch TypeInfos <<
	.long	0                       ## TypeInfo 1
	.p2align	2

	.section	__TEXT,__text,regular,pure_instructions
	.globl	__ZN6PessoaC1Ev
	.weak_def_can_be_hidden	__ZN6PessoaC1Ev
	.p2align	4, 0x90
__ZN6PessoaC1Ev:                        ## @_ZN6PessoaC1Ev
	.cfi_startproc
## BB#0:
	pushq	%rbp
Ltmp13:
	.cfi_def_cfa_offset 16
Ltmp14:
	.cfi_offset %rbp, -16
	movq	%rsp, %rbp
Ltmp15:
	.cfi_def_cfa_register %rbp
	subq	$16, %rsp
	movq	%rdi, -8(%rbp)
	movq	-8(%rbp), %rdi
	callq	__ZN6PessoaC2Ev
	addq	$16, %rsp
	popq	%rbp
	retq
	.cfi_endproc

	.globl	__ZN6Pessoa5helloEv
	.weak_definition	__ZN6Pessoa5helloEv
	.p2align	4, 0x90
__ZN6Pessoa5helloEv:                    ## @_ZN6Pessoa5helloEv
	.cfi_startproc
## BB#0:
	pushq	%rbp
Ltmp16:
	.cfi_def_cfa_offset 16
Ltmp17:
	.cfi_offset %rbp, -16
	movq	%rsp, %rbp
Ltmp18:
	.cfi_def_cfa_register %rbp
	subq	$32, %rsp
	movq	__ZNSt3__14coutE@GOTPCREL(%rip), %rax
	leaq	L_.str.1(%rip), %rsi
	movq	%rdi, -8(%rbp)
	movq	-8(%rbp), %rdi
	movq	%rdi, -16(%rbp)         ## 8-byte Spill
	movq	%rax, %rdi
	callq	__ZNSt3__1lsINS_11char_traitsIcEEEERNS_13basic_ostreamIcT_EES6_PKc
	movq	%rax, %rdi
	movq	-16(%rbp), %rsi         ## 8-byte Reload
	callq	__ZNSt3__1lsIcNS_11char_traitsIcEENS_9allocatorIcEEEERNS_13basic_ostreamIT_T0_EES9_RKNS_12basic_stringIS6_S7_T1_EE
	leaq	L_.str.2(%rip), %rsi
	movq	%rax, %rdi
	callq	__ZNSt3__1lsINS_11char_traitsIcEEEERNS_13basic_ostreamIcT_EES6_PKc
	movq	%rax, -24(%rbp)         ## 8-byte Spill
	addq	$32, %rsp
	popq	%rbp
	retq
	.cfi_endproc

	.globl	__ZN6PessoaD1Ev
	.weak_def_can_be_hidden	__ZN6PessoaD1Ev
	.p2align	4, 0x90
__ZN6PessoaD1Ev:                        ## @_ZN6PessoaD1Ev
	.cfi_startproc
## BB#0:
	pushq	%rbp
Ltmp19:
	.cfi_def_cfa_offset 16
Ltmp20:
	.cfi_offset %rbp, -16
	movq	%rsp, %rbp
Ltmp21:
	.cfi_def_cfa_register %rbp
	subq	$16, %rsp
	movq	%rdi, -8(%rbp)
	movq	-8(%rbp), %rdi
	callq	__ZN6PessoaD2Ev
	addq	$16, %rsp
	popq	%rbp
	retq
	.cfi_endproc

	.private_extern	___clang_call_terminate
	.globl	___clang_call_terminate
	.weak_definition	___clang_call_terminate
	.p2align	4, 0x90
___clang_call_terminate:                ## @__clang_call_terminate
## BB#0:
	pushq	%rax
	callq	___cxa_begin_catch
	movq	%rax, (%rsp)            ## 8-byte Spill
	callq	__ZSt9terminatev

	.globl	__ZN6PessoaC2Ev
	.weak_def_can_be_hidden	__ZN6PessoaC2Ev
	.p2align	4, 0x90
__ZN6PessoaC2Ev:                        ## @_ZN6PessoaC2Ev
	.cfi_startproc
## BB#0:
	pushq	%rbp
Ltmp22:
	.cfi_def_cfa_offset 16
Ltmp23:
	.cfi_offset %rbp, -16
	movq	%rsp, %rbp
Ltmp24:
	.cfi_def_cfa_register %rbp
	subq	$112, %rsp
	xorl	%esi, %esi
	movl	$24, %eax
	movl	%eax, %edx
	movq	%rdi, -96(%rbp)
	movq	-96(%rbp), %rdi
	movq	%rdi, -88(%rbp)
	movq	-88(%rbp), %rdi
	movq	%rdi, -80(%rbp)
	movq	-80(%rbp), %rdi
	movq	%rdi, -72(%rbp)
	movq	-72(%rbp), %rcx
	movq	%rcx, -64(%rbp)
	movq	-64(%rbp), %rcx
	movq	%rcx, -56(%rbp)
	movq	-56(%rbp), %rcx
	movq	%rcx, %r8
	movq	%r8, -48(%rbp)
	movq	%rdi, -104(%rbp)        ## 8-byte Spill
	movq	%rcx, %rdi
	callq	_memset
	movq	-104(%rbp), %rcx        ## 8-byte Reload
	movq	%rcx, -24(%rbp)
	movq	-24(%rbp), %rdx
	movq	%rdx, -16(%rbp)
	movq	-16(%rbp), %rdx
	movq	%rdx, -8(%rbp)
	movq	-8(%rbp), %rdx
	movq	%rdx, -32(%rbp)
	movl	$0, -36(%rbp)
LBB5_1:                                 ## =>This Inner Loop Header: Depth=1
	cmpl	$3, -36(%rbp)
	jae	LBB5_3
## BB#2:                                ##   in Loop: Header=BB5_1 Depth=1
	movl	-36(%rbp), %eax
	movl	%eax, %ecx
	movq	-32(%rbp), %rdx
	movq	$0, (%rdx,%rcx,8)
	movl	-36(%rbp), %eax
	addl	$1, %eax
	movl	%eax, -36(%rbp)
	jmp	LBB5_1
LBB5_3:
	addq	$112, %rsp
	popq	%rbp
	retq
	.cfi_endproc

	.globl	__ZNSt3__1lsINS_11char_traitsIcEEEERNS_13basic_ostreamIcT_EES6_PKc
	.weak_definition	__ZNSt3__1lsINS_11char_traitsIcEEEERNS_13basic_ostreamIcT_EES6_PKc
	.p2align	4, 0x90
__ZNSt3__1lsINS_11char_traitsIcEEEERNS_13basic_ostreamIcT_EES6_PKc: ## @_ZNSt3__1lsINS_11char_traitsIcEEEERNS_13basic_ostreamIcT_EES6_PKc
	.cfi_startproc
## BB#0:
	pushq	%rbp
Ltmp25:
	.cfi_def_cfa_offset 16
Ltmp26:
	.cfi_offset %rbp, -16
	movq	%rsp, %rbp
Ltmp27:
	.cfi_def_cfa_register %rbp
	subq	$32, %rsp
	movq	%rdi, -8(%rbp)
	movq	%rsi, -16(%rbp)
	movq	-8(%rbp), %rdi
	movq	-16(%rbp), %rsi
	movq	-16(%rbp), %rax
	movq	%rdi, -24(%rbp)         ## 8-byte Spill
	movq	%rax, %rdi
	movq	%rsi, -32(%rbp)         ## 8-byte Spill
	callq	__ZNSt3__111char_traitsIcE6lengthEPKc
	movq	-24(%rbp), %rdi         ## 8-byte Reload
	movq	-32(%rbp), %rsi         ## 8-byte Reload
	movq	%rax, %rdx
	callq	__ZNSt3__124__put_character_sequenceIcNS_11char_traitsIcEEEERNS_13basic_ostreamIT_T0_EES7_PKS4_m
	addq	$32, %rsp
	popq	%rbp
	retq
	.cfi_endproc

	.globl	__ZNSt3__1lsIcNS_11char_traitsIcEENS_9allocatorIcEEEERNS_13basic_ostreamIT_T0_EES9_RKNS_12basic_stringIS6_S7_T1_EE
	.weak_definition	__ZNSt3__1lsIcNS_11char_traitsIcEENS_9allocatorIcEEEERNS_13basic_ostreamIT_T0_EES9_RKNS_12basic_stringIS6_S7_T1_EE
	.p2align	4, 0x90
__ZNSt3__1lsIcNS_11char_traitsIcEENS_9allocatorIcEEEERNS_13basic_ostreamIT_T0_EES9_RKNS_12basic_stringIS6_S7_T1_EE: ## @_ZNSt3__1lsIcNS_11char_traitsIcEENS_9allocatorIcEEEERNS_13basic_ostreamIT_T0_EES9_RKNS_12basic_stringIS6_S7_T1_EE
	.cfi_startproc
## BB#0:
	pushq	%rbp
Ltmp28:
	.cfi_def_cfa_offset 16
Ltmp29:
	.cfi_offset %rbp, -16
	movq	%rsp, %rbp
Ltmp30:
	.cfi_def_cfa_register %rbp
	subq	$256, %rsp              ## imm = 0x100
	movq	%rdi, -200(%rbp)
	movq	%rsi, -208(%rbp)
	movq	-200(%rbp), %rdi
	movq	-208(%rbp), %rsi
	movq	%rsi, -192(%rbp)
	movq	-192(%rbp), %rsi
	movq	%rsi, -184(%rbp)
	movq	-184(%rbp), %rsi
	movq	%rsi, -176(%rbp)
	movq	-176(%rbp), %rax
	movq	%rax, -168(%rbp)
	movq	-168(%rbp), %rax
	movq	%rax, -160(%rbp)
	movq	-160(%rbp), %rax
	movzbl	(%rax), %ecx
	andl	$1, %ecx
	cmpl	$0, %ecx
	movq	%rdi, -216(%rbp)        ## 8-byte Spill
	movq	%rsi, -224(%rbp)        ## 8-byte Spill
	je	LBB7_2
## BB#1:
	movq	-224(%rbp), %rax        ## 8-byte Reload
	movq	%rax, -112(%rbp)
	movq	-112(%rbp), %rcx
	movq	%rcx, -104(%rbp)
	movq	-104(%rbp), %rcx
	movq	%rcx, -96(%rbp)
	movq	-96(%rbp), %rcx
	movq	16(%rcx), %rcx
	movq	%rcx, -232(%rbp)        ## 8-byte Spill
	jmp	LBB7_3
LBB7_2:
	movq	-224(%rbp), %rax        ## 8-byte Reload
	movq	%rax, -152(%rbp)
	movq	-152(%rbp), %rcx
	movq	%rcx, -144(%rbp)
	movq	-144(%rbp), %rcx
	movq	%rcx, -136(%rbp)
	movq	-136(%rbp), %rcx
	addq	$1, %rcx
	movq	%rcx, -128(%rbp)
	movq	-128(%rbp), %rcx
	movq	%rcx, -120(%rbp)
	movq	-120(%rbp), %rcx
	movq	%rcx, -232(%rbp)        ## 8-byte Spill
LBB7_3:
	movq	-232(%rbp), %rax        ## 8-byte Reload
	movq	%rax, -88(%rbp)
	movq	-88(%rbp), %rsi
	movq	-208(%rbp), %rax
	movq	%rax, -80(%rbp)
	movq	-80(%rbp), %rax
	movq	%rax, -72(%rbp)
	movq	-72(%rbp), %rcx
	movq	%rcx, -64(%rbp)
	movq	-64(%rbp), %rcx
	movq	%rcx, -56(%rbp)
	movq	-56(%rbp), %rcx
	movzbl	(%rcx), %edx
	andl	$1, %edx
	cmpl	$0, %edx
	movq	%rsi, -240(%rbp)        ## 8-byte Spill
	movq	%rax, -248(%rbp)        ## 8-byte Spill
	je	LBB7_5
## BB#4:
	movq	-248(%rbp), %rax        ## 8-byte Reload
	movq	%rax, -24(%rbp)
	movq	-24(%rbp), %rcx
	movq	%rcx, -16(%rbp)
	movq	-16(%rbp), %rcx
	movq	%rcx, -8(%rbp)
	movq	-8(%rbp), %rcx
	movq	8(%rcx), %rcx
	movq	%rcx, -256(%rbp)        ## 8-byte Spill
	jmp	LBB7_6
LBB7_5:
	movq	-248(%rbp), %rax        ## 8-byte Reload
	movq	%rax, -48(%rbp)
	movq	-48(%rbp), %rcx
	movq	%rcx, -40(%rbp)
	movq	-40(%rbp), %rcx
	movq	%rcx, -32(%rbp)
	movq	-32(%rbp), %rcx
	movzbl	(%rcx), %edx
	sarl	$1, %edx
	movslq	%edx, %rcx
	movq	%rcx, -256(%rbp)        ## 8-byte Spill
LBB7_6:
	movq	-256(%rbp), %rax        ## 8-byte Reload
	movq	-216(%rbp), %rdi        ## 8-byte Reload
	movq	-240(%rbp), %rsi        ## 8-byte Reload
	movq	%rax, %rdx
	callq	__ZNSt3__124__put_character_sequenceIcNS_11char_traitsIcEEEERNS_13basic_ostreamIT_T0_EES7_PKS4_m
	addq	$256, %rsp              ## imm = 0x100
	popq	%rbp
	retq
	.cfi_endproc

	.globl	__ZNSt3__124__put_character_sequenceIcNS_11char_traitsIcEEEERNS_13basic_ostreamIT_T0_EES7_PKS4_m
	.weak_definition	__ZNSt3__124__put_character_sequenceIcNS_11char_traitsIcEEEERNS_13basic_ostreamIT_T0_EES7_PKS4_m
	.p2align	4, 0x90
__ZNSt3__124__put_character_sequenceIcNS_11char_traitsIcEEEERNS_13basic_ostreamIT_T0_EES7_PKS4_m: ## @_ZNSt3__124__put_character_sequenceIcNS_11char_traitsIcEEEERNS_13basic_ostreamIT_T0_EES7_PKS4_m
Lfunc_begin1:
	.cfi_startproc
	.cfi_personality 155, ___gxx_personality_v0
	.cfi_lsda 16, Lexception1
## BB#0:
	pushq	%rbp
Ltmp61:
	.cfi_def_cfa_offset 16
Ltmp62:
	.cfi_offset %rbp, -16
	movq	%rsp, %rbp
Ltmp63:
	.cfi_def_cfa_register %rbp
	subq	$416, %rsp              ## imm = 0x1A0
	movq	%rdi, -200(%rbp)
	movq	%rsi, -208(%rbp)
	movq	%rdx, -216(%rbp)
	movq	-200(%rbp), %rsi
Ltmp31:
	leaq	-232(%rbp), %rdi
	callq	__ZNSt3__113basic_ostreamIcNS_11char_traitsIcEEE6sentryC1ERS3_
Ltmp32:
	jmp	LBB8_1
LBB8_1:
	leaq	-232(%rbp), %rax
	movq	%rax, -192(%rbp)
	movq	-192(%rbp), %rax
	movb	(%rax), %cl
	movb	%cl, -265(%rbp)         ## 1-byte Spill
## BB#2:
	movb	-265(%rbp), %al         ## 1-byte Reload
	testb	$1, %al
	jne	LBB8_3
	jmp	LBB8_26
LBB8_3:
	leaq	-256(%rbp), %rax
	movq	-200(%rbp), %rcx
	movq	%rax, -176(%rbp)
	movq	%rcx, -184(%rbp)
	movq	-176(%rbp), %rax
	movq	-184(%rbp), %rcx
	movq	%rax, -144(%rbp)
	movq	%rcx, -152(%rbp)
	movq	-144(%rbp), %rax
	movq	-152(%rbp), %rcx
	movq	(%rcx), %rdx
	movq	-24(%rdx), %rdx
	addq	%rdx, %rcx
	movq	%rcx, -136(%rbp)
	movq	-136(%rbp), %rcx
	movq	%rcx, -128(%rbp)
	movq	-128(%rbp), %rcx
	movq	40(%rcx), %rcx
	movq	%rcx, (%rax)
	movq	-208(%rbp), %rsi
	movq	-200(%rbp), %rax
	movq	(%rax), %rcx
	movq	-24(%rcx), %rcx
	addq	%rcx, %rax
	movq	%rax, -88(%rbp)
	movq	-88(%rbp), %rax
	movl	8(%rax), %edi
	movq	%rsi, -280(%rbp)        ## 8-byte Spill
	movl	%edi, -284(%rbp)        ## 4-byte Spill
## BB#4:
	movl	-284(%rbp), %eax        ## 4-byte Reload
	andl	$176, %eax
	cmpl	$32, %eax
	jne	LBB8_6
## BB#5:
	movq	-208(%rbp), %rax
	addq	-216(%rbp), %rax
	movq	%rax, -296(%rbp)        ## 8-byte Spill
	jmp	LBB8_7
LBB8_6:
	movq	-208(%rbp), %rax
	movq	%rax, -296(%rbp)        ## 8-byte Spill
LBB8_7:
	movq	-296(%rbp), %rax        ## 8-byte Reload
	movq	-208(%rbp), %rcx
	addq	-216(%rbp), %rcx
	movq	-200(%rbp), %rdx
	movq	(%rdx), %rsi
	movq	-24(%rsi), %rsi
	addq	%rsi, %rdx
	movq	-200(%rbp), %rsi
	movq	(%rsi), %rdi
	movq	-24(%rdi), %rdi
	addq	%rdi, %rsi
	movq	%rsi, -72(%rbp)
	movq	-72(%rbp), %rsi
	movq	%rax, -304(%rbp)        ## 8-byte Spill
	movq	%rcx, -312(%rbp)        ## 8-byte Spill
	movq	%rdx, -320(%rbp)        ## 8-byte Spill
	movq	%rsi, -328(%rbp)        ## 8-byte Spill
	callq	__ZNSt3__111char_traitsIcE3eofEv
	movq	-328(%rbp), %rcx        ## 8-byte Reload
	movl	144(%rcx), %esi
	movl	%eax, %edi
	callq	__ZNSt3__111char_traitsIcE11eq_int_typeEii
	testb	$1, %al
	jne	LBB8_8
	jmp	LBB8_16
LBB8_8:
	movq	-328(%rbp), %rax        ## 8-byte Reload
	movq	%rax, -32(%rbp)
	movb	$32, -33(%rbp)
	movq	-32(%rbp), %rsi
Ltmp33:
	leaq	-48(%rbp), %rdi
	callq	__ZNKSt3__18ios_base6getlocEv
Ltmp34:
	jmp	LBB8_9
LBB8_9:
	leaq	-48(%rbp), %rax
	movq	%rax, -24(%rbp)
Ltmp35:
	movq	__ZNSt3__15ctypeIcE2idE@GOTPCREL(%rip), %rsi
	movq	%rax, %rdi
	callq	__ZNKSt3__16locale9use_facetERNS0_2idE
Ltmp36:
	movq	%rax, -336(%rbp)        ## 8-byte Spill
	jmp	LBB8_10
LBB8_10:
	movb	-33(%rbp), %al
	movq	-336(%rbp), %rcx        ## 8-byte Reload
	movq	%rcx, -8(%rbp)
	movb	%al, -9(%rbp)
	movq	-8(%rbp), %rdx
	movq	(%rdx), %rsi
	movq	56(%rsi), %rsi
	movsbl	-9(%rbp), %edi
Ltmp37:
	movl	%edi, -340(%rbp)        ## 4-byte Spill
	movq	%rdx, %rdi
	movl	-340(%rbp), %r8d        ## 4-byte Reload
	movq	%rsi, -352(%rbp)        ## 8-byte Spill
	movl	%r8d, %esi
	movq	-352(%rbp), %rdx        ## 8-byte Reload
	callq	*%rdx
Ltmp38:
	movb	%al, -353(%rbp)         ## 1-byte Spill
	jmp	LBB8_14
LBB8_11:
Ltmp39:
	movl	%edx, %ecx
	movq	%rax, -56(%rbp)
	movl	%ecx, -60(%rbp)
Ltmp40:
	leaq	-48(%rbp), %rdi
	callq	__ZNSt3__16localeD1Ev
Ltmp41:
	jmp	LBB8_12
LBB8_12:
	movq	-56(%rbp), %rax
	movl	-60(%rbp), %ecx
	movq	%rax, -368(%rbp)        ## 8-byte Spill
	movl	%ecx, -372(%rbp)        ## 4-byte Spill
	jmp	LBB8_24
LBB8_13:
Ltmp42:
	movl	%edx, %ecx
	movq	%rax, %rdi
	movl	%ecx, -376(%rbp)        ## 4-byte Spill
	callq	___clang_call_terminate
LBB8_14:
Ltmp43:
	leaq	-48(%rbp), %rdi
	callq	__ZNSt3__16localeD1Ev
Ltmp44:
	jmp	LBB8_15
LBB8_15:
	movb	-353(%rbp), %al         ## 1-byte Reload
	movsbl	%al, %ecx
	movq	-328(%rbp), %rdx        ## 8-byte Reload
	movl	%ecx, 144(%rdx)
LBB8_16:
	movq	-328(%rbp), %rax        ## 8-byte Reload
	movl	144(%rax), %ecx
	movb	%cl, %dl
	movb	%dl, -377(%rbp)         ## 1-byte Spill
## BB#17:
	movq	-256(%rbp), %rdi
Ltmp45:
	movb	-377(%rbp), %al         ## 1-byte Reload
	movsbl	%al, %r9d
	movq	-280(%rbp), %rsi        ## 8-byte Reload
	movq	-304(%rbp), %rdx        ## 8-byte Reload
	movq	-312(%rbp), %rcx        ## 8-byte Reload
	movq	-320(%rbp), %r8         ## 8-byte Reload
	callq	__ZNSt3__116__pad_and_outputIcNS_11char_traitsIcEEEENS_19ostreambuf_iteratorIT_T0_EES6_PKS4_S8_S8_RNS_8ios_baseES4_
Ltmp46:
	movq	%rax, -392(%rbp)        ## 8-byte Spill
	jmp	LBB8_18
LBB8_18:
	leaq	-264(%rbp), %rax
	movq	-392(%rbp), %rcx        ## 8-byte Reload
	movq	%rcx, -264(%rbp)
	movq	%rax, -80(%rbp)
	movq	-80(%rbp), %rax
	cmpq	$0, (%rax)
	jne	LBB8_25
## BB#19:
	movq	-200(%rbp), %rax
	movq	(%rax), %rcx
	movq	-24(%rcx), %rcx
	addq	%rcx, %rax
	movq	%rax, -112(%rbp)
	movl	$5, -116(%rbp)
	movq	-112(%rbp), %rax
	movq	%rax, -96(%rbp)
	movl	$5, -100(%rbp)
	movq	-96(%rbp), %rax
	movl	32(%rax), %edx
	orl	$5, %edx
Ltmp47:
	movq	%rax, %rdi
	movl	%edx, %esi
	callq	__ZNSt3__18ios_base5clearEj
Ltmp48:
	jmp	LBB8_20
LBB8_20:
	jmp	LBB8_21
LBB8_21:
	jmp	LBB8_25
LBB8_22:
Ltmp54:
	movl	%edx, %ecx
	movq	%rax, -240(%rbp)
	movl	%ecx, -244(%rbp)
	jmp	LBB8_29
LBB8_23:
Ltmp49:
	movl	%edx, %ecx
	movq	%rax, -368(%rbp)        ## 8-byte Spill
	movl	%ecx, -372(%rbp)        ## 4-byte Spill
	jmp	LBB8_24
LBB8_24:
	movl	-372(%rbp), %eax        ## 4-byte Reload
	movq	-368(%rbp), %rcx        ## 8-byte Reload
	movq	%rcx, -240(%rbp)
	movl	%eax, -244(%rbp)
Ltmp50:
	leaq	-232(%rbp), %rdi
	callq	__ZNSt3__113basic_ostreamIcNS_11char_traitsIcEEE6sentryD1Ev
Ltmp51:
	jmp	LBB8_28
LBB8_25:
	jmp	LBB8_26
LBB8_26:
Ltmp52:
	leaq	-232(%rbp), %rdi
	callq	__ZNSt3__113basic_ostreamIcNS_11char_traitsIcEEE6sentryD1Ev
Ltmp53:
	jmp	LBB8_27
LBB8_27:
	jmp	LBB8_31
LBB8_28:
	jmp	LBB8_29
LBB8_29:
	movq	-240(%rbp), %rdi
	callq	___cxa_begin_catch
	movq	-200(%rbp), %rdi
	movq	(%rdi), %rcx
	movq	-24(%rcx), %rcx
	addq	%rcx, %rdi
Ltmp55:
	movq	%rax, -400(%rbp)        ## 8-byte Spill
	callq	__ZNSt3__18ios_base33__set_badbit_and_consider_rethrowEv
Ltmp56:
	jmp	LBB8_30
LBB8_30:
	callq	___cxa_end_catch
LBB8_31:
	movq	-200(%rbp), %rax
	addq	$416, %rsp              ## imm = 0x1A0
	popq	%rbp
	retq
LBB8_32:
Ltmp57:
	movl	%edx, %ecx
	movq	%rax, -240(%rbp)
	movl	%ecx, -244(%rbp)
Ltmp58:
	callq	___cxa_end_catch
Ltmp59:
	jmp	LBB8_33
LBB8_33:
	jmp	LBB8_34
LBB8_34:
	movq	-240(%rbp), %rdi
	callq	__Unwind_Resume
LBB8_35:
Ltmp60:
	movl	%edx, %ecx
	movq	%rax, %rdi
	movl	%ecx, -404(%rbp)        ## 4-byte Spill
	callq	___clang_call_terminate
Lfunc_end1:
	.cfi_endproc
	.section	__TEXT,__gcc_except_tab
	.p2align	2
GCC_except_table8:
Lexception1:
	.byte	255                     ## @LPStart Encoding = omit
	.byte	155                     ## @TType Encoding = indirect pcrel sdata4
	.asciz	"\253\201"              ## @TType base offset
	.byte	3                       ## Call site Encoding = udata4
	.ascii	"\234\001"              ## Call site table length
Lset10 = Ltmp31-Lfunc_begin1            ## >> Call Site 1 <<
	.long	Lset10
Lset11 = Ltmp32-Ltmp31                  ##   Call between Ltmp31 and Ltmp32
	.long	Lset11
Lset12 = Ltmp54-Lfunc_begin1            ##     jumps to Ltmp54
	.long	Lset12
	.byte	5                       ##   On action: 3
Lset13 = Ltmp33-Lfunc_begin1            ## >> Call Site 2 <<
	.long	Lset13
Lset14 = Ltmp34-Ltmp33                  ##   Call between Ltmp33 and Ltmp34
	.long	Lset14
Lset15 = Ltmp49-Lfunc_begin1            ##     jumps to Ltmp49
	.long	Lset15
	.byte	5                       ##   On action: 3
Lset16 = Ltmp35-Lfunc_begin1            ## >> Call Site 3 <<
	.long	Lset16
Lset17 = Ltmp38-Ltmp35                  ##   Call between Ltmp35 and Ltmp38
	.long	Lset17
Lset18 = Ltmp39-Lfunc_begin1            ##     jumps to Ltmp39
	.long	Lset18
	.byte	3                       ##   On action: 2
Lset19 = Ltmp40-Lfunc_begin1            ## >> Call Site 4 <<
	.long	Lset19
Lset20 = Ltmp41-Ltmp40                  ##   Call between Ltmp40 and Ltmp41
	.long	Lset20
Lset21 = Ltmp42-Lfunc_begin1            ##     jumps to Ltmp42
	.long	Lset21
	.byte	7                       ##   On action: 4
Lset22 = Ltmp43-Lfunc_begin1            ## >> Call Site 5 <<
	.long	Lset22
Lset23 = Ltmp48-Ltmp43                  ##   Call between Ltmp43 and Ltmp48
	.long	Lset23
Lset24 = Ltmp49-Lfunc_begin1            ##     jumps to Ltmp49
	.long	Lset24
	.byte	5                       ##   On action: 3
Lset25 = Ltmp50-Lfunc_begin1            ## >> Call Site 6 <<
	.long	Lset25
Lset26 = Ltmp51-Ltmp50                  ##   Call between Ltmp50 and Ltmp51
	.long	Lset26
Lset27 = Ltmp60-Lfunc_begin1            ##     jumps to Ltmp60
	.long	Lset27
	.byte	5                       ##   On action: 3
Lset28 = Ltmp52-Lfunc_begin1            ## >> Call Site 7 <<
	.long	Lset28
Lset29 = Ltmp53-Ltmp52                  ##   Call between Ltmp52 and Ltmp53
	.long	Lset29
Lset30 = Ltmp54-Lfunc_begin1            ##     jumps to Ltmp54
	.long	Lset30
	.byte	5                       ##   On action: 3
Lset31 = Ltmp53-Lfunc_begin1            ## >> Call Site 8 <<
	.long	Lset31
Lset32 = Ltmp55-Ltmp53                  ##   Call between Ltmp53 and Ltmp55
	.long	Lset32
	.long	0                       ##     has no landing pad
	.byte	0                       ##   On action: cleanup
Lset33 = Ltmp55-Lfunc_begin1            ## >> Call Site 9 <<
	.long	Lset33
Lset34 = Ltmp56-Ltmp55                  ##   Call between Ltmp55 and Ltmp56
	.long	Lset34
Lset35 = Ltmp57-Lfunc_begin1            ##     jumps to Ltmp57
	.long	Lset35
	.byte	0                       ##   On action: cleanup
Lset36 = Ltmp56-Lfunc_begin1            ## >> Call Site 10 <<
	.long	Lset36
Lset37 = Ltmp58-Ltmp56                  ##   Call between Ltmp56 and Ltmp58
	.long	Lset37
	.long	0                       ##     has no landing pad
	.byte	0                       ##   On action: cleanup
Lset38 = Ltmp58-Lfunc_begin1            ## >> Call Site 11 <<
	.long	Lset38
Lset39 = Ltmp59-Ltmp58                  ##   Call between Ltmp58 and Ltmp59
	.long	Lset39
Lset40 = Ltmp60-Lfunc_begin1            ##     jumps to Ltmp60
	.long	Lset40
	.byte	5                       ##   On action: 3
Lset41 = Ltmp59-Lfunc_begin1            ## >> Call Site 12 <<
	.long	Lset41
Lset42 = Lfunc_end1-Ltmp59              ##   Call between Ltmp59 and Lfunc_end1
	.long	Lset42
	.long	0                       ##     has no landing pad
	.byte	0                       ##   On action: cleanup
	.byte	0                       ## >> Action Record 1 <<
                                        ##   Cleanup
	.byte	0                       ##   No further actions
	.byte	1                       ## >> Action Record 2 <<
                                        ##   Catch TypeInfo 1
	.byte	125                     ##   Continue to action 1
	.byte	1                       ## >> Action Record 3 <<
                                        ##   Catch TypeInfo 1
	.byte	0                       ##   No further actions
	.byte	1                       ## >> Action Record 4 <<
                                        ##   Catch TypeInfo 1
	.byte	125                     ##   Continue to action 3
                                        ## >> Catch TypeInfos <<
	.long	0                       ## TypeInfo 1
	.p2align	2

	.section	__TEXT,__text,regular,pure_instructions
	.globl	__ZNSt3__111char_traitsIcE6lengthEPKc
	.weak_definition	__ZNSt3__111char_traitsIcE6lengthEPKc
	.p2align	4, 0x90
__ZNSt3__111char_traitsIcE6lengthEPKc:  ## @_ZNSt3__111char_traitsIcE6lengthEPKc
	.cfi_startproc
## BB#0:
	pushq	%rbp
Ltmp64:
	.cfi_def_cfa_offset 16
Ltmp65:
	.cfi_offset %rbp, -16
	movq	%rsp, %rbp
Ltmp66:
	.cfi_def_cfa_register %rbp
	subq	$16, %rsp
	movq	%rdi, -8(%rbp)
	movq	-8(%rbp), %rdi
	callq	_strlen
	addq	$16, %rsp
	popq	%rbp
	retq
	.cfi_endproc

	.private_extern	__ZNSt3__116__pad_and_outputIcNS_11char_traitsIcEEEENS_19ostreambuf_iteratorIT_T0_EES6_PKS4_S8_S8_RNS_8ios_baseES4_
	.globl	__ZNSt3__116__pad_and_outputIcNS_11char_traitsIcEEEENS_19ostreambuf_iteratorIT_T0_EES6_PKS4_S8_S8_RNS_8ios_baseES4_
	.weak_definition	__ZNSt3__116__pad_and_outputIcNS_11char_traitsIcEEEENS_19ostreambuf_iteratorIT_T0_EES6_PKS4_S8_S8_RNS_8ios_baseES4_
	.p2align	4, 0x90
__ZNSt3__116__pad_and_outputIcNS_11char_traitsIcEEEENS_19ostreambuf_iteratorIT_T0_EES6_PKS4_S8_S8_RNS_8ios_baseES4_: ## @_ZNSt3__116__pad_and_outputIcNS_11char_traitsIcEEEENS_19ostreambuf_iteratorIT_T0_EES6_PKS4_S8_S8_RNS_8ios_baseES4_
Lfunc_begin2:
	.cfi_startproc
	.cfi_personality 155, ___gxx_personality_v0
	.cfi_lsda 16, Lexception2
## BB#0:
	pushq	%rbp
Ltmp73:
	.cfi_def_cfa_offset 16
Ltmp74:
	.cfi_offset %rbp, -16
	movq	%rsp, %rbp
Ltmp75:
	.cfi_def_cfa_register %rbp
	subq	$736, %rsp              ## imm = 0x2E0
	movb	%r9b, %al
	leaq	-552(%rbp), %r10
	leaq	-488(%rbp), %r11
	movq	%rdi, -504(%rbp)
	movq	%rsi, -512(%rbp)
	movq	%rdx, -520(%rbp)
	movq	%rcx, -528(%rbp)
	movq	%r8, -536(%rbp)
	movb	%al, -537(%rbp)
	movq	-504(%rbp), %rcx
	movq	%r11, -472(%rbp)
	movq	$-1, -480(%rbp)
	movq	-472(%rbp), %rdx
	movq	-480(%rbp), %rsi
	movq	%rdx, -456(%rbp)
	movq	%rsi, -464(%rbp)
	movq	-456(%rbp), %rdx
	movq	$0, (%rdx)
	movq	-488(%rbp), %rdx
	movq	%rdx, -552(%rbp)
	movq	%r10, -448(%rbp)
	cmpq	$0, %rcx
	jne	LBB10_2
## BB#1:
	movq	-504(%rbp), %rax
	movq	%rax, -496(%rbp)
	jmp	LBB10_29
LBB10_2:
	movq	-528(%rbp), %rax
	movq	-512(%rbp), %rcx
	subq	%rcx, %rax
	movq	%rax, -560(%rbp)
	movq	-536(%rbp), %rax
	movq	%rax, -344(%rbp)
	movq	-344(%rbp), %rax
	movq	24(%rax), %rax
	movq	%rax, -568(%rbp)
	movq	-568(%rbp), %rax
	cmpq	-560(%rbp), %rax
	jle	LBB10_4
## BB#3:
	movq	-560(%rbp), %rax
	movq	-568(%rbp), %rcx
	subq	%rax, %rcx
	movq	%rcx, -568(%rbp)
	jmp	LBB10_5
LBB10_4:
	movq	$0, -568(%rbp)
LBB10_5:
	movq	-520(%rbp), %rax
	movq	-512(%rbp), %rcx
	subq	%rcx, %rax
	movq	%rax, -576(%rbp)
	cmpq	$0, -576(%rbp)
	jle	LBB10_9
## BB#6:
	movq	-504(%rbp), %rax
	movq	-512(%rbp), %rcx
	movq	-576(%rbp), %rdx
	movq	%rax, -248(%rbp)
	movq	%rcx, -256(%rbp)
	movq	%rdx, -264(%rbp)
	movq	-248(%rbp), %rax
	movq	(%rax), %rcx
	movq	96(%rcx), %rcx
	movq	-256(%rbp), %rsi
	movq	-264(%rbp), %rdx
	movq	%rax, %rdi
	callq	*%rcx
	cmpq	-576(%rbp), %rax
	je	LBB10_8
## BB#7:
	leaq	-584(%rbp), %rax
	leaq	-240(%rbp), %rcx
	movq	%rcx, -224(%rbp)
	movq	$-1, -232(%rbp)
	movq	-224(%rbp), %rcx
	movq	-232(%rbp), %rdx
	movq	%rcx, -208(%rbp)
	movq	%rdx, -216(%rbp)
	movq	-208(%rbp), %rcx
	movq	$0, (%rcx)
	movq	-240(%rbp), %rcx
	movq	%rcx, -584(%rbp)
	movq	%rax, -8(%rbp)
	movq	$0, -504(%rbp)
	movq	-504(%rbp), %rax
	movq	%rax, -496(%rbp)
	jmp	LBB10_29
LBB10_8:
	jmp	LBB10_9
LBB10_9:
	cmpq	$0, -568(%rbp)
	jle	LBB10_24
## BB#10:
	xorl	%esi, %esi
	movl	$24, %eax
	movl	%eax, %edx
	leaq	-608(%rbp), %rcx
	movq	-568(%rbp), %rdi
	movb	-537(%rbp), %r8b
	movq	%rcx, -72(%rbp)
	movq	%rdi, -80(%rbp)
	movb	%r8b, -81(%rbp)
	movq	-72(%rbp), %rcx
	movq	-80(%rbp), %rdi
	movb	-81(%rbp), %r8b
	movq	%rcx, -48(%rbp)
	movq	%rdi, -56(%rbp)
	movb	%r8b, -57(%rbp)
	movq	-48(%rbp), %rcx
	movq	%rcx, -40(%rbp)
	movq	-40(%rbp), %rdi
	movq	%rdi, -32(%rbp)
	movq	-32(%rbp), %rdi
	movq	%rdi, -24(%rbp)
	movq	-24(%rbp), %rdi
	movq	%rdi, %r9
	movq	%r9, -16(%rbp)
	movq	%rcx, -656(%rbp)        ## 8-byte Spill
	callq	_memset
	movq	-56(%rbp), %rsi
	movq	-656(%rbp), %rdi        ## 8-byte Reload
	movsbl	-57(%rbp), %edx
	callq	__ZNSt3__112basic_stringIcNS_11char_traitsIcEENS_9allocatorIcEEE6__initEmc
	leaq	-608(%rbp), %rcx
	movq	-504(%rbp), %rsi
	movq	%rcx, -200(%rbp)
	movq	-200(%rbp), %rcx
	movq	%rcx, -192(%rbp)
	movq	-192(%rbp), %rcx
	movq	%rcx, -184(%rbp)
	movq	-184(%rbp), %rdi
	movq	%rdi, -176(%rbp)
	movq	-176(%rbp), %rdi
	movq	%rdi, -168(%rbp)
	movq	-168(%rbp), %rdi
	movzbl	(%rdi), %eax
	andl	$1, %eax
	cmpl	$0, %eax
	movq	%rsi, -664(%rbp)        ## 8-byte Spill
	movq	%rcx, -672(%rbp)        ## 8-byte Spill
	je	LBB10_12
## BB#11:
	movq	-672(%rbp), %rax        ## 8-byte Reload
	movq	%rax, -120(%rbp)
	movq	-120(%rbp), %rcx
	movq	%rcx, -112(%rbp)
	movq	-112(%rbp), %rcx
	movq	%rcx, -104(%rbp)
	movq	-104(%rbp), %rcx
	movq	16(%rcx), %rcx
	movq	%rcx, -680(%rbp)        ## 8-byte Spill
	jmp	LBB10_13
LBB10_12:
	movq	-672(%rbp), %rax        ## 8-byte Reload
	movq	%rax, -160(%rbp)
	movq	-160(%rbp), %rcx
	movq	%rcx, -152(%rbp)
	movq	-152(%rbp), %rcx
	movq	%rcx, -144(%rbp)
	movq	-144(%rbp), %rcx
	addq	$1, %rcx
	movq	%rcx, -136(%rbp)
	movq	-136(%rbp), %rcx
	movq	%rcx, -128(%rbp)
	movq	-128(%rbp), %rcx
	movq	%rcx, -680(%rbp)        ## 8-byte Spill
LBB10_13:
	movq	-680(%rbp), %rax        ## 8-byte Reload
	movq	%rax, -96(%rbp)
	movq	-568(%rbp), %rcx
	movq	-664(%rbp), %rdx        ## 8-byte Reload
	movq	%rdx, -272(%rbp)
	movq	%rax, -280(%rbp)
	movq	%rcx, -288(%rbp)
	movq	-272(%rbp), %rax
	movq	(%rax), %rsi
	movq	96(%rsi), %rsi
	movq	-280(%rbp), %rdi
Ltmp67:
	movq	%rdi, -688(%rbp)        ## 8-byte Spill
	movq	%rax, %rdi
	movq	-688(%rbp), %rax        ## 8-byte Reload
	movq	%rsi, -696(%rbp)        ## 8-byte Spill
	movq	%rax, %rsi
	movq	%rcx, %rdx
	movq	-696(%rbp), %rcx        ## 8-byte Reload
	callq	*%rcx
Ltmp68:
	movq	%rax, -704(%rbp)        ## 8-byte Spill
	jmp	LBB10_14
LBB10_14:
	jmp	LBB10_15
LBB10_15:
	movq	-704(%rbp), %rax        ## 8-byte Reload
	cmpq	-568(%rbp), %rax
	je	LBB10_20
## BB#16:
	leaq	-328(%rbp), %rax
	movq	%rax, -312(%rbp)
	movq	$-1, -320(%rbp)
	movq	-312(%rbp), %rax
	movq	-320(%rbp), %rcx
	movq	%rax, -296(%rbp)
	movq	%rcx, -304(%rbp)
	movq	-296(%rbp), %rax
	movq	$0, (%rax)
	movq	-328(%rbp), %rax
	movq	%rax, -712(%rbp)        ## 8-byte Spill
## BB#17:
	leaq	-632(%rbp), %rax
	movq	-712(%rbp), %rcx        ## 8-byte Reload
	movq	%rcx, -632(%rbp)
	movq	%rax, -336(%rbp)
## BB#18:
	movq	$0, -504(%rbp)
	movq	-504(%rbp), %rax
	movq	%rax, -496(%rbp)
	movl	$1, -636(%rbp)
	jmp	LBB10_21
LBB10_19:
Ltmp69:
	movl	%edx, %ecx
	movq	%rax, -616(%rbp)
	movl	%ecx, -620(%rbp)
Ltmp70:
	leaq	-608(%rbp), %rdi
	callq	__ZNSt3__112basic_stringIcNS_11char_traitsIcEENS_9allocatorIcEEED1Ev
Ltmp71:
	jmp	LBB10_23
LBB10_20:
	movl	$0, -636(%rbp)
LBB10_21:
	leaq	-608(%rbp), %rdi
	callq	__ZNSt3__112basic_stringIcNS_11char_traitsIcEENS_9allocatorIcEEED1Ev
	movl	-636(%rbp), %eax
	testl	%eax, %eax
	movl	%eax, -716(%rbp)        ## 4-byte Spill
	je	LBB10_22
	jmp	LBB10_33
LBB10_33:
	movl	-716(%rbp), %eax        ## 4-byte Reload
	subl	$1, %eax
	movl	%eax, -720(%rbp)        ## 4-byte Spill
	je	LBB10_29
	jmp	LBB10_32
LBB10_22:
	jmp	LBB10_24
LBB10_23:
	jmp	LBB10_30
LBB10_24:
	movq	-528(%rbp), %rax
	movq	-520(%rbp), %rcx
	subq	%rcx, %rax
	movq	%rax, -576(%rbp)
	cmpq	$0, -576(%rbp)
	jle	LBB10_28
## BB#25:
	movq	-504(%rbp), %rax
	movq	-520(%rbp), %rcx
	movq	-576(%rbp), %rdx
	movq	%rax, -352(%rbp)
	movq	%rcx, -360(%rbp)
	movq	%rdx, -368(%rbp)
	movq	-352(%rbp), %rax
	movq	(%rax), %rcx
	movq	96(%rcx), %rcx
	movq	-360(%rbp), %rsi
	movq	-368(%rbp), %rdx
	movq	%rax, %rdi
	callq	*%rcx
	cmpq	-576(%rbp), %rax
	je	LBB10_27
## BB#26:
	leaq	-648(%rbp), %rax
	leaq	-408(%rbp), %rcx
	movq	%rcx, -392(%rbp)
	movq	$-1, -400(%rbp)
	movq	-392(%rbp), %rcx
	movq	-400(%rbp), %rdx
	movq	%rcx, -376(%rbp)
	movq	%rdx, -384(%rbp)
	movq	-376(%rbp), %rcx
	movq	$0, (%rcx)
	movq	-408(%rbp), %rcx
	movq	%rcx, -648(%rbp)
	movq	%rax, -416(%rbp)
	movq	$0, -504(%rbp)
	movq	-504(%rbp), %rax
	movq	%rax, -496(%rbp)
	jmp	LBB10_29
LBB10_27:
	jmp	LBB10_28
LBB10_28:
	movq	-536(%rbp), %rax
	movq	%rax, -424(%rbp)
	movq	$0, -432(%rbp)
	movq	-424(%rbp), %rax
	movq	24(%rax), %rcx
	movq	%rcx, -440(%rbp)
	movq	-432(%rbp), %rcx
	movq	%rcx, 24(%rax)
	movq	-504(%rbp), %rax
	movq	%rax, -496(%rbp)
LBB10_29:
	movq	-496(%rbp), %rax
	addq	$736, %rsp              ## imm = 0x2E0
	popq	%rbp
	retq
LBB10_30:
	movq	-616(%rbp), %rdi
	callq	__Unwind_Resume
LBB10_31:
Ltmp72:
	movl	%edx, %ecx
	movq	%rax, %rdi
	movl	%ecx, -724(%rbp)        ## 4-byte Spill
	callq	___clang_call_terminate
LBB10_32:
Lfunc_end2:
	.cfi_endproc
	.section	__TEXT,__gcc_except_tab
	.p2align	2
GCC_except_table10:
Lexception2:
	.byte	255                     ## @LPStart Encoding = omit
	.byte	155                     ## @TType Encoding = indirect pcrel sdata4
	.asciz	"\274"                  ## @TType base offset
	.byte	3                       ## Call site Encoding = udata4
	.byte	52                      ## Call site table length
Lset43 = Lfunc_begin2-Lfunc_begin2      ## >> Call Site 1 <<
	.long	Lset43
Lset44 = Ltmp67-Lfunc_begin2            ##   Call between Lfunc_begin2 and Ltmp67
	.long	Lset44
	.long	0                       ##     has no landing pad
	.byte	0                       ##   On action: cleanup
Lset45 = Ltmp67-Lfunc_begin2            ## >> Call Site 2 <<
	.long	Lset45
Lset46 = Ltmp68-Ltmp67                  ##   Call between Ltmp67 and Ltmp68
	.long	Lset46
Lset47 = Ltmp69-Lfunc_begin2            ##     jumps to Ltmp69
	.long	Lset47
	.byte	0                       ##   On action: cleanup
Lset48 = Ltmp70-Lfunc_begin2            ## >> Call Site 3 <<
	.long	Lset48
Lset49 = Ltmp71-Ltmp70                  ##   Call between Ltmp70 and Ltmp71
	.long	Lset49
Lset50 = Ltmp72-Lfunc_begin2            ##     jumps to Ltmp72
	.long	Lset50
	.byte	1                       ##   On action: 1
Lset51 = Ltmp71-Lfunc_begin2            ## >> Call Site 4 <<
	.long	Lset51
Lset52 = Lfunc_end2-Ltmp71              ##   Call between Ltmp71 and Lfunc_end2
	.long	Lset52
	.long	0                       ##     has no landing pad
	.byte	0                       ##   On action: cleanup
	.byte	1                       ## >> Action Record 1 <<
                                        ##   Catch TypeInfo 1
	.byte	0                       ##   No further actions
                                        ## >> Catch TypeInfos <<
	.long	0                       ## TypeInfo 1
	.p2align	2

	.section	__TEXT,__text,regular,pure_instructions
	.globl	__ZNSt3__111char_traitsIcE11eq_int_typeEii
	.weak_definition	__ZNSt3__111char_traitsIcE11eq_int_typeEii
	.p2align	4, 0x90
__ZNSt3__111char_traitsIcE11eq_int_typeEii: ## @_ZNSt3__111char_traitsIcE11eq_int_typeEii
	.cfi_startproc
## BB#0:
	pushq	%rbp
Ltmp76:
	.cfi_def_cfa_offset 16
Ltmp77:
	.cfi_offset %rbp, -16
	movq	%rsp, %rbp
Ltmp78:
	.cfi_def_cfa_register %rbp
	movl	%edi, -4(%rbp)
	movl	%esi, -8(%rbp)
	movl	-4(%rbp), %esi
	cmpl	-8(%rbp), %esi
	sete	%al
	andb	$1, %al
	movzbl	%al, %eax
	popq	%rbp
	retq
	.cfi_endproc

	.globl	__ZNSt3__111char_traitsIcE3eofEv
	.weak_definition	__ZNSt3__111char_traitsIcE3eofEv
	.p2align	4, 0x90
__ZNSt3__111char_traitsIcE3eofEv:       ## @_ZNSt3__111char_traitsIcE3eofEv
	.cfi_startproc
## BB#0:
	pushq	%rbp
Ltmp79:
	.cfi_def_cfa_offset 16
Ltmp80:
	.cfi_offset %rbp, -16
	movq	%rsp, %rbp
Ltmp81:
	.cfi_def_cfa_register %rbp
	movl	$4294967295, %eax       ## imm = 0xFFFFFFFF
	popq	%rbp
	retq
	.cfi_endproc

	.globl	__ZN6PessoaD2Ev
	.weak_def_can_be_hidden	__ZN6PessoaD2Ev
	.p2align	4, 0x90
__ZN6PessoaD2Ev:                        ## @_ZN6PessoaD2Ev
	.cfi_startproc
## BB#0:
	pushq	%rbp
Ltmp82:
	.cfi_def_cfa_offset 16
Ltmp83:
	.cfi_offset %rbp, -16
	movq	%rsp, %rbp
Ltmp84:
	.cfi_def_cfa_register %rbp
	subq	$16, %rsp
	movq	%rdi, -8(%rbp)
	movq	-8(%rbp), %rdi
	callq	__ZNSt3__112basic_stringIcNS_11char_traitsIcEENS_9allocatorIcEEED1Ev
	addq	$16, %rsp
	popq	%rbp
	retq
	.cfi_endproc

	.section	__TEXT,__cstring,cstring_literals
L_.str:                                 ## @.str
	.asciz	"Pessoa 1"

L_.str.1:                               ## @.str.1
	.asciz	"Hello "

L_.str.2:                               ## @.str.2
	.asciz	"\n"


.subsections_via_symbols
